; Function Attrs: mustprogress nofree norecurse nosync nounwind willreturn memory(argmem: write) uwtable
define dso_local void @pg_sha1_init(ptr noundef writeonly captures(none) initializes((0, 104)) %0) local_unnamed_addr #0 {
  %2 = getelementptr inbounds nuw i8, ptr %0, i64 16
  tail call void @llvm.memset.p0.i64(ptr noundef nonnull align 8 dereferenceable(104) %2, i8 0, i64 88, i1 false)
  store i32 1732584193, ptr %0, align 8
  %3 = getelementptr inbounds nuw i8, ptr %0, i64 4
  store i32 -271733879, ptr %3, align 4
  %4 = getelementptr inbounds nuw i8, ptr %0, i64 8
  store i32 -1732584194, ptr %4, align 8
  %5 = getelementptr inbounds nuw i8, ptr %0, i64 12
  store i32 271733878, ptr %5, align 4
  %6 = getelementptr inbounds nuw i8, ptr %0, i64 16
  store i32 -1009589776, ptr %6, align 8
  ret void
}